	.attribute	4, 16
	.attribute	5, "rv32i2p1_m2p0_zmmul1p0"
	.file	"main.cpp"
	.text
	.globl	_Z4mainv                        # -- Begin function _Z4mainv
	.p2align	2
	.type	_Z4mainv,@function
_Z4mainv:                               # @_Z4mainv
	.cfi_startproc
# %bb.0:
	addi	sp, sp, -208
	.cfi_def_cfa_offset 208
	sw	ra, 204(sp)                     # 4-byte Folded Spill
	sw	s0, 200(sp)                     # 4-byte Folded Spill
	sw	s1, 196(sp)                     # 4-byte Folded Spill
	sw	s2, 192(sp)                     # 4-byte Folded Spill
	sw	s3, 188(sp)                     # 4-byte Folded Spill
	sw	s4, 184(sp)                     # 4-byte Folded Spill
	sw	s5, 180(sp)                     # 4-byte Folded Spill
	sw	s6, 176(sp)                     # 4-byte Folded Spill
	sw	s7, 172(sp)                     # 4-byte Folded Spill
	sw	s8, 168(sp)                     # 4-byte Folded Spill
	sw	s9, 164(sp)                     # 4-byte Folded Spill
	sw	s10, 160(sp)                    # 4-byte Folded Spill
	sw	s11, 156(sp)                    # 4-byte Folded Spill
	.cfi_offset ra, -4
	.cfi_offset s0, -8
	.cfi_offset s1, -12
	.cfi_offset s2, -16
	.cfi_offset s3, -20
	.cfi_offset s4, -24
	.cfi_offset s5, -28
	.cfi_offset s6, -32
	.cfi_offset s7, -36
	.cfi_offset s8, -40
	.cfi_offset s9, -44
	.cfi_offset s10, -48
	.cfi_offset s11, -52
	call	_ZN4Hapi4InitEv
	li	a0, 60
	call	_ZN4Hapi12SetTargetFPSEi
	lui	a0, %hi(_ZN11SproutLandsL5WaterE)
	addi	a0, a0, %lo(_ZN11SproutLandsL5WaterE)
	li	a1, 16
	li	a2, 16
	call	_ZN4Hapi9LoadImageEPcii
	mv	s0, a0
	lui	a0, %hi(_ZN11SproutLandsL5BoatsE)
	addi	a0, a0, %lo(_ZN11SproutLandsL5BoatsE)
	li	a1, 48
	li	a2, 32
	call	_ZN4Hapi9LoadImageEPcii
	sw	a0, 16(sp)                      # 4-byte Folded Spill
	li	s2, 0
	li	s9, 0
	li	s3, 10
	li	s4, 20
	li	s11, 384
	li	s10, 224
	lui	a0, 335544
	lui	s5, 524288
	lui	a1, 174763
	addi	s1, a0, 1311
	addi	s5, s5, -1
	addi	a0, a1, -1365
	sw	a0, 12(sp)                      # 4-byte Folded Spill
                                        # implicit-def: $x22
.LBB0_1:                                # =>This Loop Header: Depth=1
                                        #     Child Loop BB0_2 Depth 2
                                        #       Child Loop BB0_3 Depth 3
	call	_ZN4Hapi12StartDrawingEv
	addi	a0, sp, 148
	li	a1, 255
	li	a2, 127
	li	a3, 127
	li	a4, 1
	call	_ZN4Hapi5ColorC1Ehhhb
	lhu	a1, 152(sp)
	lw	a0, 148(sp)
	lui	a2, 1048560
	and	a2, s6, a2
	or	s6, a2, a1
	mv	a1, s6
	call	_ZN4Hapi5ClearENS_5ColorE
	li	a0, 0
.LBB0_2:                                #   Parent Loop BB0_1 Depth=1
                                        # =>  This Loop Header: Depth=2
                                        #       Child Loop BB0_3 Depth 3
	mv	s7, a0
	li	s8, -16
.LBB0_3:                                #   Parent Loop BB0_1 Depth=1
                                        #     Parent Loop BB0_2 Depth=2
                                        # =>    This Inner Loop Header: Depth=3
	addi	s8, s8, 16
	li	a5, 16
	li	a6, 16
	li	a7, 48
	mv	a0, s0
	mv	a1, s2
	li	a2, 0
	mv	a3, s8
	mv	a4, s7
	call	_ZN4Hapi4DrawEjiiiiiii
	bltu	s8, s11, .LBB0_3
# %bb.4:                                #   in Loop: Header=BB0_2 Depth=2
	addi	a0, s7, 16
	bltu	s7, s10, .LBB0_2
# %bb.5:                                #   in Loop: Header=BB0_1 Depth=1
	li	a4, 100
	li	a5, 48
	li	a6, 32
	li	a7, 48
	lw	a0, 16(sp)                      # 4-byte Folded Reload
	li	a1, 0
	li	a2, 0
	mv	a3, s3
	call	_ZN4Hapi4DrawEjiiiiiii
	addi	s9, s9, 2
	mulhu	a0, s9, s1
	srli	a0, a0, 6
	li	a1, 200
	mul	a0, a0, a1
	sub	a0, s9, a0
	addi	s3, a0, 50
	addi	a0, sp, 20
	lui	a1, %hi(.L.str)
	addi	a1, a1, %lo(.L.str)
	mv	a2, s3
	call	sprintf_
	addi	a0, sp, 20
	li	a1, 5
	li	a2, 5
	mv	a3, s5
	call	_ZN4Hapi8DrawTextEPKciij
	addi	s4, s4, -1
	bnez	s4, .LBB0_7
# %bb.6:                                #   in Loop: Header=BB0_1 Depth=1
	addi	s2, s2, 16
	lw	a0, 12(sp)                      # 4-byte Folded Reload
	mulh	a0, s2, a0
	srli	a1, a0, 31
	srli	a0, a0, 3
	add	a0, a0, a1
	slli	a1, a0, 6
	slli	a0, a0, 4
	sub	a0, a0, a1
	add	s2, s2, a0
	li	s4, 20
.LBB0_7:                                #   in Loop: Header=BB0_1 Depth=1
	call	_ZN4Hapi10EndDrawingEv
	j	.LBB0_1
.Lfunc_end0:
	.size	_Z4mainv, .Lfunc_end0-_Z4mainv
	.cfi_endproc
                                        # -- End function
	.globl	_Z15updateAnimationRiS_ii       # -- Begin function _Z15updateAnimationRiS_ii
	.p2align	2
	.type	_Z15updateAnimationRiS_ii,@function
_Z15updateAnimationRiS_ii:              # @_Z15updateAnimationRiS_ii
# %bb.0:
	lw	a4, 0(a0)
	addi	a4, a4, -1
	sw	a4, 0(a0)
	beqz	a4, .LBB1_2
# %bb.1:
	ret
.LBB1_2:
	lw	a4, 0(a1)
	add	a2, a4, a2
	rem	a2, a2, a3
	li	a3, 20
	sw	a2, 0(a1)
	sw	a3, 0(a0)
	ret
.Lfunc_end1:
	.size	_Z15updateAnimationRiS_ii, .Lfunc_end1-_Z15updateAnimationRiS_ii
                                        # -- End function
	.type	_ZN11SproutLandsL5WaterE,@object # @_ZN11SproutLandsL5WaterE
	.section	.rodata,"a",@progbits
	.p2align	1, 0x0
_ZN11SproutLandsL5WaterE:
	.half	40625                           # 0x9eb1
	.half	40625                           # 0x9eb1
	.half	40625                           # 0x9eb1
	.half	40625                           # 0x9eb1
	.half	40625                           # 0x9eb1
	.half	40625                           # 0x9eb1
	.half	40625                           # 0x9eb1
	.half	40625                           # 0x9eb1
	.half	40625                           # 0x9eb1
	.half	40625                           # 0x9eb1
	.half	40625                           # 0x9eb1
	.half	40625                           # 0x9eb1
	.half	40625                           # 0x9eb1
	.half	46895                           # 0xb72f
	.half	46895                           # 0xb72f
	.half	46895                           # 0xb72f
	.half	46895                           # 0xb72f
	.half	40625                           # 0x9eb1
	.half	40625                           # 0x9eb1
	.half	40625                           # 0x9eb1
	.half	40625                           # 0x9eb1
	.half	40625                           # 0x9eb1
	.half	40625                           # 0x9eb1
	.half	40625                           # 0x9eb1
	.half	40625                           # 0x9eb1
	.half	40625                           # 0x9eb1
	.half	40625                           # 0x9eb1
	.half	40625                           # 0x9eb1
	.half	40625                           # 0x9eb1
	.half	40625                           # 0x9eb1
	.half	46895                           # 0xb72f
	.half	46895                           # 0xb72f
	.half	46895                           # 0xb72f
	.half	40625                           # 0x9eb1
	.half	40625                           # 0x9eb1
	.half	40625                           # 0x9eb1
	.half	40625                           # 0x9eb1
	.half	40625                           # 0x9eb1
	.half	40625                           # 0x9eb1
	.half	40625                           # 0x9eb1
	.half	40625                           # 0x9eb1
	.half	40625                           # 0x9eb1
	.half	40625                           # 0x9eb1
	.half	40625                           # 0x9eb1
	.half	40625                           # 0x9eb1
	.half	40625                           # 0x9eb1
	.half	46895                           # 0xb72f
	.half	46895                           # 0xb72f
	.half	40625                           # 0x9eb1
	.half	40625                           # 0x9eb1
	.half	40625                           # 0x9eb1
	.half	40625                           # 0x9eb1
	.half	40625                           # 0x9eb1
	.half	40625                           # 0x9eb1
	.half	40625                           # 0x9eb1
	.half	40625                           # 0x9eb1
	.half	40625                           # 0x9eb1
	.half	40625                           # 0x9eb1
	.half	40625                           # 0x9eb1
	.half	40625                           # 0x9eb1
	.half	40625                           # 0x9eb1
	.half	46895                           # 0xb72f
	.half	46895                           # 0xb72f
	.half	46895                           # 0xb72f
	.half	40625                           # 0x9eb1
	.half	40625                           # 0x9eb1
	.half	40625                           # 0x9eb1
	.half	40625                           # 0x9eb1
	.half	40625                           # 0x9eb1
	.half	40625                           # 0x9eb1
	.half	40625                           # 0x9eb1
	.half	40625                           # 0x9eb1
	.half	40625                           # 0x9eb1
	.half	40625                           # 0x9eb1
	.half	40625                           # 0x9eb1
	.half	40625                           # 0x9eb1
	.half	40625                           # 0x9eb1
	.half	40625                           # 0x9eb1
	.half	40625                           # 0x9eb1
	.half	40625                           # 0x9eb1
	.half	40625                           # 0x9eb1
	.half	40625                           # 0x9eb1
	.half	40625                           # 0x9eb1
	.half	40625                           # 0x9eb1
	.half	40625                           # 0x9eb1
	.half	40625                           # 0x9eb1
	.half	40625                           # 0x9eb1
	.half	40625                           # 0x9eb1
	.half	40625                           # 0x9eb1
	.half	40625                           # 0x9eb1
	.half	40625                           # 0x9eb1
	.half	40625                           # 0x9eb1
	.half	40625                           # 0x9eb1
	.half	40625                           # 0x9eb1
	.half	40625                           # 0x9eb1
	.half	40625                           # 0x9eb1
	.half	40625                           # 0x9eb1
	.half	40625                           # 0x9eb1
	.half	40625                           # 0x9eb1
	.half	40625                           # 0x9eb1
	.half	40625                           # 0x9eb1
	.half	40625                           # 0x9eb1
	.half	40625                           # 0x9eb1
	.half	40625                           # 0x9eb1
	.half	40625                           # 0x9eb1
	.half	40625                           # 0x9eb1
	.half	40625                           # 0x9eb1
	.half	40625                           # 0x9eb1
	.half	40625                           # 0x9eb1
	.half	40625                           # 0x9eb1
	.half	40625                           # 0x9eb1
	.half	40625                           # 0x9eb1
	.half	40625                           # 0x9eb1
	.half	40625                           # 0x9eb1
	.half	40625                           # 0x9eb1
	.half	40625                           # 0x9eb1
	.half	40625                           # 0x9eb1
	.half	40625                           # 0x9eb1
	.half	40625                           # 0x9eb1
	.half	40625                           # 0x9eb1
	.half	40625                           # 0x9eb1
	.half	40625                           # 0x9eb1
	.half	40625                           # 0x9eb1
	.half	40625                           # 0x9eb1
	.half	40625                           # 0x9eb1
	.half	40625                           # 0x9eb1
	.half	40625                           # 0x9eb1
	.half	40625                           # 0x9eb1
	.half	40625                           # 0x9eb1
	.half	40625                           # 0x9eb1
	.half	40625                           # 0x9eb1
	.half	40625                           # 0x9eb1
	.half	40625                           # 0x9eb1
	.half	40625                           # 0x9eb1
	.half	40625                           # 0x9eb1
	.half	46895                           # 0xb72f
	.half	46895                           # 0xb72f
	.half	46895                           # 0xb72f
	.half	40625                           # 0x9eb1
	.half	40625                           # 0x9eb1
	.half	40625                           # 0x9eb1
	.half	40625                           # 0x9eb1
	.half	40625                           # 0x9eb1
	.half	40625                           # 0x9eb1
	.half	40625                           # 0x9eb1
	.half	40625                           # 0x9eb1
	.half	40625                           # 0x9eb1
	.half	40625                           # 0x9eb1
	.half	40625                           # 0x9eb1
	.half	40625                           # 0x9eb1
	.half	40625                           # 0x9eb1
	.half	46895                           # 0xb72f
	.half	46895                           # 0xb72f
	.half	46895                           # 0xb72f
	.half	40625                           # 0x9eb1
	.half	40625                           # 0x9eb1
	.half	40625                           # 0x9eb1
	.half	40625                           # 0x9eb1
	.half	40625                           # 0x9eb1
	.half	40625                           # 0x9eb1
	.half	40625                           # 0x9eb1
	.half	40625                           # 0x9eb1
	.half	40625                           # 0x9eb1
	.half	40625                           # 0x9eb1
	.half	40625                           # 0x9eb1
	.half	40625                           # 0x9eb1
	.half	40625                           # 0x9eb1
	.half	40625                           # 0x9eb1
	.half	46895                           # 0xb72f
	.half	46895                           # 0xb72f
	.half	46895                           # 0xb72f
	.half	40625                           # 0x9eb1
	.half	40625                           # 0x9eb1
	.half	40625                           # 0x9eb1
	.half	40625                           # 0x9eb1
	.half	40625                           # 0x9eb1
	.half	40625                           # 0x9eb1
	.half	40625                           # 0x9eb1
	.half	40625                           # 0x9eb1
	.half	40625                           # 0x9eb1
	.half	40625                           # 0x9eb1
	.half	40625                           # 0x9eb1
	.half	40625                           # 0x9eb1
	.half	40625                           # 0x9eb1
	.half	46895                           # 0xb72f
	.half	46895                           # 0xb72f
	.half	46895                           # 0xb72f
	.half	40625                           # 0x9eb1
	.half	40625                           # 0x9eb1
	.half	40625                           # 0x9eb1
	.half	40625                           # 0x9eb1
	.half	40625                           # 0x9eb1
	.half	40625                           # 0x9eb1
	.half	40625                           # 0x9eb1
	.half	40625                           # 0x9eb1
	.half	40625                           # 0x9eb1
	.half	40625                           # 0x9eb1
	.half	40625                           # 0x9eb1
	.half	40625                           # 0x9eb1
	.half	40625                           # 0x9eb1
	.half	40625                           # 0x9eb1
	.half	40625                           # 0x9eb1
	.half	40625                           # 0x9eb1
	.half	40625                           # 0x9eb1
	.half	40625                           # 0x9eb1
	.half	40625                           # 0x9eb1
	.half	40625                           # 0x9eb1
	.half	40625                           # 0x9eb1
	.half	40625                           # 0x9eb1
	.half	40625                           # 0x9eb1
	.half	40625                           # 0x9eb1
	.half	40625                           # 0x9eb1
	.half	40625                           # 0x9eb1
	.half	40625                           # 0x9eb1
	.half	40625                           # 0x9eb1
	.half	40625                           # 0x9eb1
	.half	40625                           # 0x9eb1
	.half	40625                           # 0x9eb1
	.half	40625                           # 0x9eb1
	.half	40625                           # 0x9eb1
	.half	40625                           # 0x9eb1
	.half	40625                           # 0x9eb1
	.half	40625                           # 0x9eb1
	.half	40625                           # 0x9eb1
	.half	40625                           # 0x9eb1
	.half	40625                           # 0x9eb1
	.half	40625                           # 0x9eb1
	.half	40625                           # 0x9eb1
	.half	40625                           # 0x9eb1
	.half	40625                           # 0x9eb1
	.half	40625                           # 0x9eb1
	.half	40625                           # 0x9eb1
	.half	40625                           # 0x9eb1
	.half	40625                           # 0x9eb1
	.half	40625                           # 0x9eb1
	.half	40625                           # 0x9eb1
	.half	40625                           # 0x9eb1
	.half	40625                           # 0x9eb1
	.half	40625                           # 0x9eb1
	.half	40625                           # 0x9eb1
	.half	40625                           # 0x9eb1
	.half	40625                           # 0x9eb1
	.half	40625                           # 0x9eb1
	.half	40625                           # 0x9eb1
	.half	40625                           # 0x9eb1
	.half	40625                           # 0x9eb1
	.half	40625                           # 0x9eb1
	.half	40625                           # 0x9eb1
	.half	40625                           # 0x9eb1
	.half	40625                           # 0x9eb1
	.half	40625                           # 0x9eb1
	.half	40625                           # 0x9eb1
	.half	40625                           # 0x9eb1
	.half	40625                           # 0x9eb1
	.half	40625                           # 0x9eb1
	.half	40625                           # 0x9eb1
	.half	40625                           # 0x9eb1
	.half	40625                           # 0x9eb1
	.half	40625                           # 0x9eb1
	.half	40625                           # 0x9eb1
	.half	40625                           # 0x9eb1
	.half	40625                           # 0x9eb1
	.half	40625                           # 0x9eb1
	.half	40625                           # 0x9eb1
	.half	40625                           # 0x9eb1
	.half	40625                           # 0x9eb1
	.half	40625                           # 0x9eb1
	.half	40625                           # 0x9eb1
	.half	40625                           # 0x9eb1
	.half	40625                           # 0x9eb1
	.half	40625                           # 0x9eb1
	.half	40625                           # 0x9eb1
	.half	40625                           # 0x9eb1
	.half	40625                           # 0x9eb1
	.half	40625                           # 0x9eb1
	.half	40625                           # 0x9eb1
	.half	40625                           # 0x9eb1
	.half	40625                           # 0x9eb1
	.half	40625                           # 0x9eb1
	.half	40625                           # 0x9eb1
	.half	40625                           # 0x9eb1
	.half	40625                           # 0x9eb1
	.half	40625                           # 0x9eb1
	.half	40625                           # 0x9eb1
	.half	40625                           # 0x9eb1
	.half	40625                           # 0x9eb1
	.half	40625                           # 0x9eb1
	.half	40625                           # 0x9eb1
	.half	40625                           # 0x9eb1
	.half	40625                           # 0x9eb1
	.half	40625                           # 0x9eb1
	.half	40625                           # 0x9eb1
	.half	40625                           # 0x9eb1
	.half	40625                           # 0x9eb1
	.half	40625                           # 0x9eb1
	.half	40625                           # 0x9eb1
	.half	40625                           # 0x9eb1
	.half	40625                           # 0x9eb1
	.half	40625                           # 0x9eb1
	.half	40625                           # 0x9eb1
	.half	40625                           # 0x9eb1
	.half	40625                           # 0x9eb1
	.half	40625                           # 0x9eb1
	.half	40625                           # 0x9eb1
	.half	40625                           # 0x9eb1
	.half	40625                           # 0x9eb1
	.half	40625                           # 0x9eb1
	.half	40625                           # 0x9eb1
	.half	40625                           # 0x9eb1
	.half	40625                           # 0x9eb1
	.half	40625                           # 0x9eb1
	.half	40625                           # 0x9eb1
	.half	40625                           # 0x9eb1
	.half	40625                           # 0x9eb1
	.half	40625                           # 0x9eb1
	.half	40625                           # 0x9eb1
	.half	40625                           # 0x9eb1
	.half	40625                           # 0x9eb1
	.half	40625                           # 0x9eb1
	.half	40625                           # 0x9eb1
	.half	46895                           # 0xb72f
	.half	46895                           # 0xb72f
	.half	46895                           # 0xb72f
	.half	40625                           # 0x9eb1
	.half	40625                           # 0x9eb1
	.half	40625                           # 0x9eb1
	.half	40625                           # 0x9eb1
	.half	40625                           # 0x9eb1
	.half	40625                           # 0x9eb1
	.half	40625                           # 0x9eb1
	.half	40625                           # 0x9eb1
	.half	40625                           # 0x9eb1
	.half	40625                           # 0x9eb1
	.half	40625                           # 0x9eb1
	.half	40625                           # 0x9eb1
	.half	46895                           # 0xb72f
	.half	46895                           # 0xb72f
	.half	46895                           # 0xb72f
	.half	46895                           # 0xb72f
	.half	46895                           # 0xb72f
	.half	40625                           # 0x9eb1
	.half	40625                           # 0x9eb1
	.half	40625                           # 0x9eb1
	.half	40625                           # 0x9eb1
	.half	40625                           # 0x9eb1
	.half	40625                           # 0x9eb1
	.half	40625                           # 0x9eb1
	.half	40625                           # 0x9eb1
	.half	40625                           # 0x9eb1
	.half	40625                           # 0x9eb1
	.half	40625                           # 0x9eb1
	.half	40625                           # 0x9eb1
	.half	46895                           # 0xb72f
	.half	46895                           # 0xb72f
	.half	46895                           # 0xb72f
	.half	46895                           # 0xb72f
	.half	40625                           # 0x9eb1
	.half	40625                           # 0x9eb1
	.half	40625                           # 0x9eb1
	.half	40625                           # 0x9eb1
	.half	40625                           # 0x9eb1
	.half	40625                           # 0x9eb1
	.half	40625                           # 0x9eb1
	.half	40625                           # 0x9eb1
	.half	40625                           # 0x9eb1
	.half	40625                           # 0x9eb1
	.half	40625                           # 0x9eb1
	.half	40625                           # 0x9eb1
	.half	46895                           # 0xb72f
	.half	46895                           # 0xb72f
	.half	46895                           # 0xb72f
	.half	40625                           # 0x9eb1
	.half	40625                           # 0x9eb1
	.half	40625                           # 0x9eb1
	.half	40625                           # 0x9eb1
	.half	40625                           # 0x9eb1
	.half	40625                           # 0x9eb1
	.half	40625                           # 0x9eb1
	.half	40625                           # 0x9eb1
	.half	40625                           # 0x9eb1
	.half	40625                           # 0x9eb1
	.half	40625                           # 0x9eb1
	.half	40625                           # 0x9eb1
	.half	46895                           # 0xb72f
	.half	40625                           # 0x9eb1
	.half	40625                           # 0x9eb1
	.half	40625                           # 0x9eb1
	.half	40625                           # 0x9eb1
	.half	40625                           # 0x9eb1
	.half	40625                           # 0x9eb1
	.half	40625                           # 0x9eb1
	.half	40625                           # 0x9eb1
	.half	40625                           # 0x9eb1
	.half	40625                           # 0x9eb1
	.half	40625                           # 0x9eb1
	.half	40625                           # 0x9eb1
	.half	40625                           # 0x9eb1
	.half	40625                           # 0x9eb1
	.half	40625                           # 0x9eb1
	.half	40625                           # 0x9eb1
	.half	40625                           # 0x9eb1
	.half	40625                           # 0x9eb1
	.half	40625                           # 0x9eb1
	.half	40625                           # 0x9eb1
	.half	40625                           # 0x9eb1
	.half	40625                           # 0x9eb1
	.half	40625                           # 0x9eb1
	.half	40625                           # 0x9eb1
	.half	40625                           # 0x9eb1
	.half	40625                           # 0x9eb1
	.half	40625                           # 0x9eb1
	.half	40625                           # 0x9eb1
	.half	40625                           # 0x9eb1
	.half	40625                           # 0x9eb1
	.half	40625                           # 0x9eb1
	.half	40625                           # 0x9eb1
	.half	40625                           # 0x9eb1
	.half	40625                           # 0x9eb1
	.half	40625                           # 0x9eb1
	.half	40625                           # 0x9eb1
	.half	40625                           # 0x9eb1
	.half	40625                           # 0x9eb1
	.half	40625                           # 0x9eb1
	.half	40625                           # 0x9eb1
	.half	40625                           # 0x9eb1
	.half	40625                           # 0x9eb1
	.half	40625                           # 0x9eb1
	.half	40625                           # 0x9eb1
	.half	40625                           # 0x9eb1
	.half	40625                           # 0x9eb1
	.half	40625                           # 0x9eb1
	.half	40625                           # 0x9eb1
	.half	40625                           # 0x9eb1
	.half	40625                           # 0x9eb1
	.half	40625                           # 0x9eb1
	.half	40625                           # 0x9eb1
	.half	40625                           # 0x9eb1
	.half	40625                           # 0x9eb1
	.half	40625                           # 0x9eb1
	.half	40625                           # 0x9eb1
	.half	40625                           # 0x9eb1
	.half	40625                           # 0x9eb1
	.half	40625                           # 0x9eb1
	.half	40625                           # 0x9eb1
	.half	40625                           # 0x9eb1
	.half	40625                           # 0x9eb1
	.half	40625                           # 0x9eb1
	.half	40625                           # 0x9eb1
	.half	40625                           # 0x9eb1
	.half	40625                           # 0x9eb1
	.half	40625                           # 0x9eb1
	.half	40625                           # 0x9eb1
	.half	40625                           # 0x9eb1
	.half	40625                           # 0x9eb1
	.half	40625                           # 0x9eb1
	.half	40625                           # 0x9eb1
	.half	40625                           # 0x9eb1
	.half	40625                           # 0x9eb1
	.half	40625                           # 0x9eb1
	.half	40625                           # 0x9eb1
	.half	40625                           # 0x9eb1
	.half	40625                           # 0x9eb1
	.half	40625                           # 0x9eb1
	.half	40625                           # 0x9eb1
	.half	40625                           # 0x9eb1
	.half	40625                           # 0x9eb1
	.half	40625                           # 0x9eb1
	.half	40625                           # 0x9eb1
	.half	40625                           # 0x9eb1
	.half	40625                           # 0x9eb1
	.half	40625                           # 0x9eb1
	.half	40625                           # 0x9eb1
	.half	40625                           # 0x9eb1
	.half	40625                           # 0x9eb1
	.half	40625                           # 0x9eb1
	.half	40625                           # 0x9eb1
	.half	40625                           # 0x9eb1
	.half	40625                           # 0x9eb1
	.half	40625                           # 0x9eb1
	.half	40625                           # 0x9eb1
	.half	40625                           # 0x9eb1
	.half	40625                           # 0x9eb1
	.half	40625                           # 0x9eb1
	.half	40625                           # 0x9eb1
	.half	40625                           # 0x9eb1
	.half	40625                           # 0x9eb1
	.half	40625                           # 0x9eb1
	.half	40625                           # 0x9eb1
	.half	40625                           # 0x9eb1
	.half	40625                           # 0x9eb1
	.half	40625                           # 0x9eb1
	.half	40625                           # 0x9eb1
	.half	40625                           # 0x9eb1
	.half	40625                           # 0x9eb1
	.half	40625                           # 0x9eb1
	.half	40625                           # 0x9eb1
	.half	40625                           # 0x9eb1
	.half	40625                           # 0x9eb1
	.half	40625                           # 0x9eb1
	.half	40625                           # 0x9eb1
	.half	40625                           # 0x9eb1
	.half	40625                           # 0x9eb1
	.half	40625                           # 0x9eb1
	.half	40625                           # 0x9eb1
	.half	40625                           # 0x9eb1
	.half	40625                           # 0x9eb1
	.half	40625                           # 0x9eb1
	.half	40625                           # 0x9eb1
	.half	40625                           # 0x9eb1
	.half	40625                           # 0x9eb1
	.half	40625                           # 0x9eb1
	.half	40625                           # 0x9eb1
	.half	40625                           # 0x9eb1
	.half	40625                           # 0x9eb1
	.half	40625                           # 0x9eb1
	.half	40625                           # 0x9eb1
	.half	40625                           # 0x9eb1
	.half	40625                           # 0x9eb1
	.half	40625                           # 0x9eb1
	.half	40625                           # 0x9eb1
	.half	40625                           # 0x9eb1
	.half	46895                           # 0xb72f
	.half	46895                           # 0xb72f
	.half	46895                           # 0xb72f
	.half	46895                           # 0xb72f
	.half	40625                           # 0x9eb1
	.half	40625                           # 0x9eb1
	.half	40625                           # 0x9eb1
	.half	40625                           # 0x9eb1
	.half	40625                           # 0x9eb1
	.half	40625                           # 0x9eb1
	.half	40625                           # 0x9eb1
	.half	40625                           # 0x9eb1
	.half	40625                           # 0x9eb1
	.half	40625                           # 0x9eb1
	.half	40625                           # 0x9eb1
	.half	40625                           # 0x9eb1
	.half	40625                           # 0x9eb1
	.half	46895                           # 0xb72f
	.half	46895                           # 0xb72f
	.half	46895                           # 0xb72f
	.half	46895                           # 0xb72f
	.half	40625                           # 0x9eb1
	.half	40625                           # 0x9eb1
	.half	40625                           # 0x9eb1
	.half	40625                           # 0x9eb1
	.half	40625                           # 0x9eb1
	.half	40625                           # 0x9eb1
	.half	40625                           # 0x9eb1
	.half	40625                           # 0x9eb1
	.half	40625                           # 0x9eb1
	.half	40625                           # 0x9eb1
	.half	40625                           # 0x9eb1
	.half	40625                           # 0x9eb1
	.half	46895                           # 0xb72f
	.half	46895                           # 0xb72f
	.half	46895                           # 0xb72f
	.half	46895                           # 0xb72f
	.half	40625                           # 0x9eb1
	.half	40625                           # 0x9eb1
	.half	40625                           # 0x9eb1
	.half	40625                           # 0x9eb1
	.half	40625                           # 0x9eb1
	.half	40625                           # 0x9eb1
	.half	40625                           # 0x9eb1
	.half	40625                           # 0x9eb1
	.half	40625                           # 0x9eb1
	.half	40625                           # 0x9eb1
	.half	40625                           # 0x9eb1
	.half	46895                           # 0xb72f
	.half	46895                           # 0xb72f
	.half	46895                           # 0xb72f
	.half	46895                           # 0xb72f
	.half	40625                           # 0x9eb1
	.half	40625                           # 0x9eb1
	.half	40625                           # 0x9eb1
	.half	40625                           # 0x9eb1
	.half	40625                           # 0x9eb1
	.half	40625                           # 0x9eb1
	.half	40625                           # 0x9eb1
	.half	40625                           # 0x9eb1
	.half	40625                           # 0x9eb1
	.half	40625                           # 0x9eb1
	.half	40625                           # 0x9eb1
	.half	40625                           # 0x9eb1
	.half	40625                           # 0x9eb1
	.half	40625                           # 0x9eb1
	.half	40625                           # 0x9eb1
	.half	40625                           # 0x9eb1
	.half	40625                           # 0x9eb1
	.half	40625                           # 0x9eb1
	.half	40625                           # 0x9eb1
	.half	40625                           # 0x9eb1
	.half	40625                           # 0x9eb1
	.half	40625                           # 0x9eb1
	.half	40625                           # 0x9eb1
	.half	40625                           # 0x9eb1
	.half	40625                           # 0x9eb1
	.half	40625                           # 0x9eb1
	.half	40625                           # 0x9eb1
	.half	40625                           # 0x9eb1
	.half	40625                           # 0x9eb1
	.half	40625                           # 0x9eb1
	.half	40625                           # 0x9eb1
	.half	40625                           # 0x9eb1
	.half	40625                           # 0x9eb1
	.half	40625                           # 0x9eb1
	.half	40625                           # 0x9eb1
	.half	40625                           # 0x9eb1
	.half	40625                           # 0x9eb1
	.half	40625                           # 0x9eb1
	.half	40625                           # 0x9eb1
	.half	40625                           # 0x9eb1
	.half	40625                           # 0x9eb1
	.half	40625                           # 0x9eb1
	.half	40625                           # 0x9eb1
	.half	40625                           # 0x9eb1
	.half	40625                           # 0x9eb1
	.half	40625                           # 0x9eb1
	.half	40625                           # 0x9eb1
	.half	40625                           # 0x9eb1
	.half	40625                           # 0x9eb1
	.half	40625                           # 0x9eb1
	.half	40625                           # 0x9eb1
	.half	40625                           # 0x9eb1
	.half	40625                           # 0x9eb1
	.half	40625                           # 0x9eb1
	.half	40625                           # 0x9eb1
	.half	40625                           # 0x9eb1
	.half	40625                           # 0x9eb1
	.half	40625                           # 0x9eb1
	.half	40625                           # 0x9eb1
	.half	40625                           # 0x9eb1
	.half	40625                           # 0x9eb1
	.half	40625                           # 0x9eb1
	.half	40625                           # 0x9eb1
	.half	40625                           # 0x9eb1
	.half	40625                           # 0x9eb1
	.half	40625                           # 0x9eb1
	.half	40625                           # 0x9eb1
	.half	40625                           # 0x9eb1
	.half	40625                           # 0x9eb1
	.half	40625                           # 0x9eb1
	.half	40625                           # 0x9eb1
	.half	46895                           # 0xb72f
	.half	46895                           # 0xb72f
	.half	40625                           # 0x9eb1
	.half	40625                           # 0x9eb1
	.half	40625                           # 0x9eb1
	.half	40625                           # 0x9eb1
	.half	40625                           # 0x9eb1
	.half	40625                           # 0x9eb1
	.half	40625                           # 0x9eb1
	.half	40625                           # 0x9eb1
	.half	40625                           # 0x9eb1
	.half	40625                           # 0x9eb1
	.half	40625                           # 0x9eb1
	.half	40625                           # 0x9eb1
	.half	40625                           # 0x9eb1
	.half	40625                           # 0x9eb1
	.half	46895                           # 0xb72f
	.half	46895                           # 0xb72f
	.half	40625                           # 0x9eb1
	.half	40625                           # 0x9eb1
	.half	40625                           # 0x9eb1
	.half	40625                           # 0x9eb1
	.half	40625                           # 0x9eb1
	.half	40625                           # 0x9eb1
	.half	40625                           # 0x9eb1
	.half	40625                           # 0x9eb1
	.half	40625                           # 0x9eb1
	.half	40625                           # 0x9eb1
	.half	40625                           # 0x9eb1
	.half	40625                           # 0x9eb1
	.half	40625                           # 0x9eb1
	.half	40625                           # 0x9eb1
	.half	40625                           # 0x9eb1
	.half	46895                           # 0xb72f
	.half	46895                           # 0xb72f
	.half	40625                           # 0x9eb1
	.half	40625                           # 0x9eb1
	.half	40625                           # 0x9eb1
	.half	40625                           # 0x9eb1
	.half	40625                           # 0x9eb1
	.half	40625                           # 0x9eb1
	.half	40625                           # 0x9eb1
	.half	40625                           # 0x9eb1
	.half	40625                           # 0x9eb1
	.half	40625                           # 0x9eb1
	.half	40625                           # 0x9eb1
	.half	40625                           # 0x9eb1
	.half	40625                           # 0x9eb1
	.half	40625                           # 0x9eb1
	.half	46895                           # 0xb72f
	.half	46895                           # 0xb72f
	.half	40625                           # 0x9eb1
	.half	40625                           # 0x9eb1
	.half	40625                           # 0x9eb1
	.half	40625                           # 0x9eb1
	.half	40625                           # 0x9eb1
	.half	40625                           # 0x9eb1
	.half	40625                           # 0x9eb1
	.half	40625                           # 0x9eb1
	.half	40625                           # 0x9eb1
	.half	40625                           # 0x9eb1
	.half	40625                           # 0x9eb1
	.half	40625                           # 0x9eb1
	.half	40625                           # 0x9eb1
	.half	40625                           # 0x9eb1
	.half	40625                           # 0x9eb1
	.half	40625                           # 0x9eb1
	.half	40625                           # 0x9eb1
	.half	40625                           # 0x9eb1
	.half	40625                           # 0x9eb1
	.half	40625                           # 0x9eb1
	.half	40625                           # 0x9eb1
	.half	40625                           # 0x9eb1
	.half	40625                           # 0x9eb1
	.half	40625                           # 0x9eb1
	.half	40625                           # 0x9eb1
	.half	40625                           # 0x9eb1
	.half	40625                           # 0x9eb1
	.half	40625                           # 0x9eb1
	.half	40625                           # 0x9eb1
	.half	40625                           # 0x9eb1
	.half	40625                           # 0x9eb1
	.half	40625                           # 0x9eb1
	.half	40625                           # 0x9eb1
	.half	40625                           # 0x9eb1
	.half	40625                           # 0x9eb1
	.half	40625                           # 0x9eb1
	.half	40625                           # 0x9eb1
	.half	40625                           # 0x9eb1
	.half	40625                           # 0x9eb1
	.half	40625                           # 0x9eb1
	.half	40625                           # 0x9eb1
	.half	40625                           # 0x9eb1
	.half	40625                           # 0x9eb1
	.half	40625                           # 0x9eb1
	.half	40625                           # 0x9eb1
	.half	40625                           # 0x9eb1
	.half	40625                           # 0x9eb1
	.half	40625                           # 0x9eb1
	.half	40625                           # 0x9eb1
	.half	40625                           # 0x9eb1
	.half	40625                           # 0x9eb1
	.half	40625                           # 0x9eb1
	.half	40625                           # 0x9eb1
	.half	40625                           # 0x9eb1
	.half	40625                           # 0x9eb1
	.half	40625                           # 0x9eb1
	.half	40625                           # 0x9eb1
	.half	40625                           # 0x9eb1
	.half	40625                           # 0x9eb1
	.half	40625                           # 0x9eb1
	.half	40625                           # 0x9eb1
	.half	40625                           # 0x9eb1
	.half	40625                           # 0x9eb1
	.half	40625                           # 0x9eb1
	.half	40625                           # 0x9eb1
	.half	40625                           # 0x9eb1
	.half	40625                           # 0x9eb1
	.half	40625                           # 0x9eb1
	.half	40625                           # 0x9eb1
	.half	40625                           # 0x9eb1
	.half	40625                           # 0x9eb1
	.half	40625                           # 0x9eb1
	.half	40625                           # 0x9eb1
	.half	40625                           # 0x9eb1
	.half	40625                           # 0x9eb1
	.half	40625                           # 0x9eb1
	.half	40625                           # 0x9eb1
	.half	40625                           # 0x9eb1
	.half	40625                           # 0x9eb1
	.half	40625                           # 0x9eb1
	.half	40625                           # 0x9eb1
	.half	40625                           # 0x9eb1
	.half	40625                           # 0x9eb1
	.half	40625                           # 0x9eb1
	.half	40625                           # 0x9eb1
	.half	40625                           # 0x9eb1
	.half	46895                           # 0xb72f
	.half	46895                           # 0xb72f
	.half	46895                           # 0xb72f
	.half	40625                           # 0x9eb1
	.half	40625                           # 0x9eb1
	.half	40625                           # 0x9eb1
	.half	40625                           # 0x9eb1
	.half	40625                           # 0x9eb1
	.half	40625                           # 0x9eb1
	.half	40625                           # 0x9eb1
	.half	40625                           # 0x9eb1
	.half	40625                           # 0x9eb1
	.half	40625                           # 0x9eb1
	.half	40625                           # 0x9eb1
	.half	40625                           # 0x9eb1
	.half	40625                           # 0x9eb1
	.half	46895                           # 0xb72f
	.half	46895                           # 0xb72f
	.half	46895                           # 0xb72f
	.half	46895                           # 0xb72f
	.half	40625                           # 0x9eb1
	.half	40625                           # 0x9eb1
	.half	40625                           # 0x9eb1
	.half	40625                           # 0x9eb1
	.half	40625                           # 0x9eb1
	.half	40625                           # 0x9eb1
	.half	40625                           # 0x9eb1
	.half	40625                           # 0x9eb1
	.half	40625                           # 0x9eb1
	.half	40625                           # 0x9eb1
	.half	40625                           # 0x9eb1
	.half	40625                           # 0x9eb1
	.half	40625                           # 0x9eb1
	.half	46895                           # 0xb72f
	.half	46895                           # 0xb72f
	.half	46895                           # 0xb72f
	.half	40625                           # 0x9eb1
	.half	40625                           # 0x9eb1
	.half	40625                           # 0x9eb1
	.half	40625                           # 0x9eb1
	.half	40625                           # 0x9eb1
	.half	40625                           # 0x9eb1
	.half	40625                           # 0x9eb1
	.half	40625                           # 0x9eb1
	.half	40625                           # 0x9eb1
	.half	40625                           # 0x9eb1
	.half	40625                           # 0x9eb1
	.half	40625                           # 0x9eb1
	.half	40625                           # 0x9eb1
	.half	46895                           # 0xb72f
	.half	46895                           # 0xb72f
	.half	40625                           # 0x9eb1
	.half	40625                           # 0x9eb1
	.half	40625                           # 0x9eb1
	.half	40625                           # 0x9eb1
	.half	40625                           # 0x9eb1
	.half	40625                           # 0x9eb1
	.half	40625                           # 0x9eb1
	.half	46895                           # 0xb72f
	.half	46895                           # 0xb72f
	.half	46895                           # 0xb72f
	.half	40625                           # 0x9eb1
	.half	40625                           # 0x9eb1
	.half	40625                           # 0x9eb1
	.half	40625                           # 0x9eb1
	.half	40625                           # 0x9eb1
	.half	40625                           # 0x9eb1
	.half	40625                           # 0x9eb1
	.half	40625                           # 0x9eb1
	.half	40625                           # 0x9eb1
	.half	40625                           # 0x9eb1
	.half	40625                           # 0x9eb1
	.half	40625                           # 0x9eb1
	.half	40625                           # 0x9eb1
	.half	40625                           # 0x9eb1
	.half	46895                           # 0xb72f
	.half	46895                           # 0xb72f
	.half	46895                           # 0xb72f
	.half	40625                           # 0x9eb1
	.half	40625                           # 0x9eb1
	.half	40625                           # 0x9eb1
	.half	40625                           # 0x9eb1
	.half	40625                           # 0x9eb1
	.half	40625                           # 0x9eb1
	.half	40625                           # 0x9eb1
	.half	40625                           # 0x9eb1
	.half	40625                           # 0x9eb1
	.half	40625                           # 0x9eb1
	.half	40625                           # 0x9eb1
	.half	40625                           # 0x9eb1
	.half	40625                           # 0x9eb1
	.half	46895                           # 0xb72f
	.half	46895                           # 0xb72f
	.half	46895                           # 0xb72f
	.half	40625                           # 0x9eb1
	.half	40625                           # 0x9eb1
	.half	40625                           # 0x9eb1
	.half	40625                           # 0x9eb1
	.half	40625                           # 0x9eb1
	.half	40625                           # 0x9eb1
	.half	40625                           # 0x9eb1
	.half	40625                           # 0x9eb1
	.half	40625                           # 0x9eb1
	.half	40625                           # 0x9eb1
	.half	40625                           # 0x9eb1
	.half	40625                           # 0x9eb1
	.half	46895                           # 0xb72f
	.half	46895                           # 0xb72f
	.half	46895                           # 0xb72f
	.half	40625                           # 0x9eb1
	.half	40625                           # 0x9eb1
	.half	40625                           # 0x9eb1
	.half	40625                           # 0x9eb1
	.half	40625                           # 0x9eb1
	.half	40625                           # 0x9eb1
	.half	40625                           # 0x9eb1
	.half	40625                           # 0x9eb1
	.half	40625                           # 0x9eb1
	.half	40625                           # 0x9eb1
	.half	40625                           # 0x9eb1
	.half	40625                           # 0x9eb1
	.half	40625                           # 0x9eb1
	.half	40625                           # 0x9eb1
	.half	40625                           # 0x9eb1
	.half	40625                           # 0x9eb1
	.half	40625                           # 0x9eb1
	.half	40625                           # 0x9eb1
	.half	40625                           # 0x9eb1
	.half	40625                           # 0x9eb1
	.half	40625                           # 0x9eb1
	.half	40625                           # 0x9eb1
	.half	40625                           # 0x9eb1
	.half	40625                           # 0x9eb1
	.half	40625                           # 0x9eb1
	.half	40625                           # 0x9eb1
	.half	40625                           # 0x9eb1
	.half	40625                           # 0x9eb1
	.half	40625                           # 0x9eb1
	.half	40625                           # 0x9eb1
	.half	40625                           # 0x9eb1
	.half	40625                           # 0x9eb1
	.half	40625                           # 0x9eb1
	.half	40625                           # 0x9eb1
	.half	40625                           # 0x9eb1
	.half	40625                           # 0x9eb1
	.half	40625                           # 0x9eb1
	.half	40625                           # 0x9eb1
	.half	40625                           # 0x9eb1
	.half	40625                           # 0x9eb1
	.half	40625                           # 0x9eb1
	.half	40625                           # 0x9eb1
	.half	40625                           # 0x9eb1
	.half	40625                           # 0x9eb1
	.half	40625                           # 0x9eb1
	.half	40625                           # 0x9eb1
	.half	40625                           # 0x9eb1
	.half	40625                           # 0x9eb1
	.half	40625                           # 0x9eb1
	.half	40625                           # 0x9eb1
	.half	40625                           # 0x9eb1
	.half	40625                           # 0x9eb1
	.half	40625                           # 0x9eb1
	.half	40625                           # 0x9eb1
	.half	40625                           # 0x9eb1
	.half	40625                           # 0x9eb1
	.half	40625                           # 0x9eb1
	.half	40625                           # 0x9eb1
	.half	40625                           # 0x9eb1
	.half	40625                           # 0x9eb1
	.half	40625                           # 0x9eb1
	.half	40625                           # 0x9eb1
	.half	40625                           # 0x9eb1
	.half	40625                           # 0x9eb1
	.half	40625                           # 0x9eb1
	.half	40625                           # 0x9eb1
	.half	40625                           # 0x9eb1
	.half	40625                           # 0x9eb1
	.half	40625                           # 0x9eb1
	.half	40625                           # 0x9eb1
	.half	40625                           # 0x9eb1
	.half	40625                           # 0x9eb1
	.half	40625                           # 0x9eb1
	.half	40625                           # 0x9eb1
	.half	40625                           # 0x9eb1
	.half	40625                           # 0x9eb1
	.half	40625                           # 0x9eb1
	.half	40625                           # 0x9eb1
	.half	40625                           # 0x9eb1
	.half	40625                           # 0x9eb1
	.half	40625                           # 0x9eb1
	.half	40625                           # 0x9eb1
	.half	40625                           # 0x9eb1
	.half	40625                           # 0x9eb1
	.half	40625                           # 0x9eb1
	.half	40625                           # 0x9eb1
	.half	40625                           # 0x9eb1
	.half	40625                           # 0x9eb1
	.half	40625                           # 0x9eb1
	.half	40625                           # 0x9eb1
	.half	40625                           # 0x9eb1
	.half	40625                           # 0x9eb1
	.half	40625                           # 0x9eb1
	.half	40625                           # 0x9eb1
	.half	40625                           # 0x9eb1
	.half	40625                           # 0x9eb1
	.half	40625                           # 0x9eb1
	.half	40625                           # 0x9eb1
	.half	40625                           # 0x9eb1
	.half	40625                           # 0x9eb1
	.half	40625                           # 0x9eb1
	.half	40625                           # 0x9eb1
	.half	40625                           # 0x9eb1
	.half	40625                           # 0x9eb1
	.half	40625                           # 0x9eb1
	.half	40625                           # 0x9eb1
	.half	40625                           # 0x9eb1
	.half	40625                           # 0x9eb1
	.half	40625                           # 0x9eb1
	.half	40625                           # 0x9eb1
	.half	40625                           # 0x9eb1
	.half	40625                           # 0x9eb1
	.half	40625                           # 0x9eb1
	.half	40625                           # 0x9eb1
	.half	40625                           # 0x9eb1
	.half	40625                           # 0x9eb1
	.half	40625                           # 0x9eb1
	.half	40625                           # 0x9eb1
	.half	40625                           # 0x9eb1
	.half	40625                           # 0x9eb1
	.half	40625                           # 0x9eb1
	.half	40625                           # 0x9eb1
	.half	40625                           # 0x9eb1
	.half	40625                           # 0x9eb1
	.half	40625                           # 0x9eb1
	.half	40625                           # 0x9eb1
	.half	40625                           # 0x9eb1
	.half	40625                           # 0x9eb1
	.half	40625                           # 0x9eb1
	.half	40625                           # 0x9eb1
	.half	40625                           # 0x9eb1
	.half	40625                           # 0x9eb1
	.half	40625                           # 0x9eb1
	.half	40625                           # 0x9eb1
	.size	_ZN11SproutLandsL5WaterE, 2048

	.type	_ZN11SproutLandsL5BoatsE,@object # @_ZN11SproutLandsL5BoatsE
	.p2align	1, 0x0
_ZN11SproutLandsL5BoatsE:
	.half	1                               # 0x1
	.half	1                               # 0x1
	.half	1                               # 0x1
	.half	1                               # 0x1
	.half	1                               # 0x1
	.half	1                               # 0x1
	.half	1                               # 0x1
	.half	1                               # 0x1
	.half	1                               # 0x1
	.half	1                               # 0x1
	.half	1                               # 0x1
	.half	1                               # 0x1
	.half	1                               # 0x1
	.half	1                               # 0x1
	.half	1                               # 0x1
	.half	1                               # 0x1
	.half	1                               # 0x1
	.half	1                               # 0x1
	.half	1                               # 0x1
	.half	1                               # 0x1
	.half	1                               # 0x1
	.half	1                               # 0x1
	.half	1                               # 0x1
	.half	1                               # 0x1
	.half	1                               # 0x1
	.half	1                               # 0x1
	.half	1                               # 0x1
	.half	1                               # 0x1
	.half	1                               # 0x1
	.half	1                               # 0x1
	.half	1                               # 0x1
	.half	1                               # 0x1
	.half	1                               # 0x1
	.half	1                               # 0x1
	.half	1                               # 0x1
	.half	1                               # 0x1
	.half	1                               # 0x1
	.half	1                               # 0x1
	.half	1                               # 0x1
	.half	1                               # 0x1
	.half	1                               # 0x1
	.half	1                               # 0x1
	.half	1                               # 0x1
	.half	1                               # 0x1
	.half	1                               # 0x1
	.half	1                               # 0x1
	.half	1                               # 0x1
	.half	1                               # 0x1
	.half	63489                           # 0xf801
	.half	10177                           # 0x27c1
	.half	0                               # 0x0
	.half	0                               # 0x0
	.half	0                               # 0x0
	.half	0                               # 0x0
	.half	0                               # 0x0
	.half	0                               # 0x0
	.half	0                               # 0x0
	.half	0                               # 0x0
	.half	0                               # 0x0
	.half	0                               # 0x0
	.half	0                               # 0x0
	.half	0                               # 0x0
	.half	0                               # 0x0
	.half	0                               # 0x0
	.half	0                               # 0x0
	.half	0                               # 0x0
	.half	0                               # 0x0
	.half	0                               # 0x0
	.half	0                               # 0x0
	.half	0                               # 0x0
	.half	0                               # 0x0
	.half	0                               # 0x0
	.half	0                               # 0x0
	.half	0                               # 0x0
	.half	0                               # 0x0
	.half	0                               # 0x0
	.half	0                               # 0x0
	.half	0                               # 0x0
	.half	0                               # 0x0
	.half	0                               # 0x0
	.half	0                               # 0x0
	.half	0                               # 0x0
	.half	0                               # 0x0
	.half	0                               # 0x0
	.half	0                               # 0x0
	.half	0                               # 0x0
	.half	0                               # 0x0
	.half	0                               # 0x0
	.half	0                               # 0x0
	.half	0                               # 0x0
	.half	0                               # 0x0
	.half	0                               # 0x0
	.half	0                               # 0x0
	.half	0                               # 0x0
	.half	10177                           # 0x27c1
	.half	63489                           # 0xf801
	.half	63489                           # 0xf801
	.half	0                               # 0x0
	.half	0                               # 0x0
	.half	0                               # 0x0
	.half	0                               # 0x0
	.half	0                               # 0x0
	.half	0                               # 0x0
	.half	0                               # 0x0
	.half	0                               # 0x0
	.half	0                               # 0x0
	.half	0                               # 0x0
	.half	0                               # 0x0
	.half	0                               # 0x0
	.half	0                               # 0x0
	.half	0                               # 0x0
	.half	0                               # 0x0
	.half	0                               # 0x0
	.half	0                               # 0x0
	.half	0                               # 0x0
	.half	0                               # 0x0
	.half	0                               # 0x0
	.half	0                               # 0x0
	.half	0                               # 0x0
	.half	0                               # 0x0
	.half	0                               # 0x0
	.half	0                               # 0x0
	.half	0                               # 0x0
	.half	0                               # 0x0
	.half	0                               # 0x0
	.half	0                               # 0x0
	.half	0                               # 0x0
	.half	0                               # 0x0
	.half	0                               # 0x0
	.half	0                               # 0x0
	.half	0                               # 0x0
	.half	0                               # 0x0
	.half	0                               # 0x0
	.half	0                               # 0x0
	.half	0                               # 0x0
	.half	0                               # 0x0
	.half	0                               # 0x0
	.half	0                               # 0x0
	.half	0                               # 0x0
	.half	0                               # 0x0
	.half	0                               # 0x0
	.half	0                               # 0x0
	.half	0                               # 0x0
	.half	63489                           # 0xf801
	.half	63489                           # 0xf801
	.half	0                               # 0x0
	.half	0                               # 0x0
	.half	0                               # 0x0
	.half	0                               # 0x0
	.half	0                               # 0x0
	.half	0                               # 0x0
	.half	0                               # 0x0
	.half	0                               # 0x0
	.half	0                               # 0x0
	.half	0                               # 0x0
	.half	0                               # 0x0
	.half	0                               # 0x0
	.half	0                               # 0x0
	.half	0                               # 0x0
	.half	0                               # 0x0
	.half	0                               # 0x0
	.half	0                               # 0x0
	.half	0                               # 0x0
	.half	0                               # 0x0
	.half	0                               # 0x0
	.half	0                               # 0x0
	.half	0                               # 0x0
	.half	0                               # 0x0
	.half	0                               # 0x0
	.half	0                               # 0x0
	.half	0                               # 0x0
	.half	0                               # 0x0
	.half	0                               # 0x0
	.half	0                               # 0x0
	.half	0                               # 0x0
	.half	0                               # 0x0
	.half	0                               # 0x0
	.half	0                               # 0x0
	.half	0                               # 0x0
	.half	0                               # 0x0
	.half	0                               # 0x0
	.half	0                               # 0x0
	.half	0                               # 0x0
	.half	0                               # 0x0
	.half	0                               # 0x0
	.half	0                               # 0x0
	.half	0                               # 0x0
	.half	0                               # 0x0
	.half	0                               # 0x0
	.half	0                               # 0x0
	.half	0                               # 0x0
	.half	63489                           # 0xf801
	.half	63489                           # 0xf801
	.half	0                               # 0x0
	.half	0                               # 0x0
	.half	0                               # 0x0
	.half	0                               # 0x0
	.half	0                               # 0x0
	.half	0                               # 0x0
	.half	0                               # 0x0
	.half	0                               # 0x0
	.half	0                               # 0x0
	.half	0                               # 0x0
	.half	0                               # 0x0
	.half	0                               # 0x0
	.half	0                               # 0x0
	.half	0                               # 0x0
	.half	0                               # 0x0
	.half	0                               # 0x0
	.half	0                               # 0x0
	.half	0                               # 0x0
	.half	0                               # 0x0
	.half	0                               # 0x0
	.half	0                               # 0x0
	.half	0                               # 0x0
	.half	0                               # 0x0
	.half	0                               # 0x0
	.half	0                               # 0x0
	.half	0                               # 0x0
	.half	0                               # 0x0
	.half	0                               # 0x0
	.half	0                               # 0x0
	.half	0                               # 0x0
	.half	0                               # 0x0
	.half	0                               # 0x0
	.half	0                               # 0x0
	.half	0                               # 0x0
	.half	0                               # 0x0
	.half	0                               # 0x0
	.half	0                               # 0x0
	.half	0                               # 0x0
	.half	0                               # 0x0
	.half	0                               # 0x0
	.half	0                               # 0x0
	.half	0                               # 0x0
	.half	0                               # 0x0
	.half	0                               # 0x0
	.half	0                               # 0x0
	.half	0                               # 0x0
	.half	63489                           # 0xf801
	.half	63489                           # 0xf801
	.half	0                               # 0x0
	.half	0                               # 0x0
	.half	0                               # 0x0
	.half	0                               # 0x0
	.half	0                               # 0x0
	.half	0                               # 0x0
	.half	0                               # 0x0
	.half	0                               # 0x0
	.half	0                               # 0x0
	.half	0                               # 0x0
	.half	0                               # 0x0
	.half	0                               # 0x0
	.half	0                               # 0x0
	.half	0                               # 0x0
	.half	0                               # 0x0
	.half	0                               # 0x0
	.half	0                               # 0x0
	.half	0                               # 0x0
	.half	0                               # 0x0
	.half	0                               # 0x0
	.half	0                               # 0x0
	.half	0                               # 0x0
	.half	0                               # 0x0
	.half	0                               # 0x0
	.half	0                               # 0x0
	.half	0                               # 0x0
	.half	0                               # 0x0
	.half	0                               # 0x0
	.half	0                               # 0x0
	.half	0                               # 0x0
	.half	0                               # 0x0
	.half	0                               # 0x0
	.half	0                               # 0x0
	.half	0                               # 0x0
	.half	0                               # 0x0
	.half	0                               # 0x0
	.half	0                               # 0x0
	.half	0                               # 0x0
	.half	0                               # 0x0
	.half	0                               # 0x0
	.half	0                               # 0x0
	.half	0                               # 0x0
	.half	0                               # 0x0
	.half	0                               # 0x0
	.half	0                               # 0x0
	.half	0                               # 0x0
	.half	63489                           # 0xf801
	.half	63489                           # 0xf801
	.half	0                               # 0x0
	.half	0                               # 0x0
	.half	0                               # 0x0
	.half	0                               # 0x0
	.half	0                               # 0x0
	.half	0                               # 0x0
	.half	0                               # 0x0
	.half	0                               # 0x0
	.half	0                               # 0x0
	.half	0                               # 0x0
	.half	0                               # 0x0
	.half	0                               # 0x0
	.half	0                               # 0x0
	.half	0                               # 0x0
	.half	0                               # 0x0
	.half	0                               # 0x0
	.half	0                               # 0x0
	.half	0                               # 0x0
	.half	0                               # 0x0
	.half	0                               # 0x0
	.half	0                               # 0x0
	.half	0                               # 0x0
	.half	0                               # 0x0
	.half	0                               # 0x0
	.half	0                               # 0x0
	.half	0                               # 0x0
	.half	0                               # 0x0
	.half	0                               # 0x0
	.half	0                               # 0x0
	.half	0                               # 0x0
	.half	0                               # 0x0
	.half	0                               # 0x0
	.half	0                               # 0x0
	.half	0                               # 0x0
	.half	0                               # 0x0
	.half	0                               # 0x0
	.half	0                               # 0x0
	.half	0                               # 0x0
	.half	0                               # 0x0
	.half	0                               # 0x0
	.half	0                               # 0x0
	.half	0                               # 0x0
	.half	0                               # 0x0
	.half	0                               # 0x0
	.half	0                               # 0x0
	.half	0                               # 0x0
	.half	63489                           # 0xf801
	.half	63489                           # 0xf801
	.half	0                               # 0x0
	.half	0                               # 0x0
	.half	0                               # 0x0
	.half	0                               # 0x0
	.half	0                               # 0x0
	.half	0                               # 0x0
	.half	0                               # 0x0
	.half	0                               # 0x0
	.half	0                               # 0x0
	.half	0                               # 0x0
	.half	0                               # 0x0
	.half	0                               # 0x0
	.half	0                               # 0x0
	.half	0                               # 0x0
	.half	0                               # 0x0
	.half	0                               # 0x0
	.half	0                               # 0x0
	.half	0                               # 0x0
	.half	0                               # 0x0
	.half	0                               # 0x0
	.half	0                               # 0x0
	.half	0                               # 0x0
	.half	0                               # 0x0
	.half	0                               # 0x0
	.half	0                               # 0x0
	.half	0                               # 0x0
	.half	0                               # 0x0
	.half	0                               # 0x0
	.half	0                               # 0x0
	.half	0                               # 0x0
	.half	0                               # 0x0
	.half	0                               # 0x0
	.half	0                               # 0x0
	.half	0                               # 0x0
	.half	0                               # 0x0
	.half	0                               # 0x0
	.half	0                               # 0x0
	.half	0                               # 0x0
	.half	0                               # 0x0
	.half	0                               # 0x0
	.half	0                               # 0x0
	.half	0                               # 0x0
	.half	0                               # 0x0
	.half	0                               # 0x0
	.half	0                               # 0x0
	.half	0                               # 0x0
	.half	63489                           # 0xf801
	.half	63489                           # 0xf801
	.half	0                               # 0x0
	.half	0                               # 0x0
	.half	0                               # 0x0
	.half	0                               # 0x0
	.half	0                               # 0x0
	.half	0                               # 0x0
	.half	0                               # 0x0
	.half	0                               # 0x0
	.half	0                               # 0x0
	.half	0                               # 0x0
	.half	0                               # 0x0
	.half	0                               # 0x0
	.half	0                               # 0x0
	.half	0                               # 0x0
	.half	0                               # 0x0
	.half	0                               # 0x0
	.half	0                               # 0x0
	.half	0                               # 0x0
	.half	0                               # 0x0
	.half	0                               # 0x0
	.half	0                               # 0x0
	.half	0                               # 0x0
	.half	0                               # 0x0
	.half	0                               # 0x0
	.half	0                               # 0x0
	.half	0                               # 0x0
	.half	0                               # 0x0
	.half	0                               # 0x0
	.half	0                               # 0x0
	.half	0                               # 0x0
	.half	0                               # 0x0
	.half	0                               # 0x0
	.half	0                               # 0x0
	.half	0                               # 0x0
	.half	0                               # 0x0
	.half	0                               # 0x0
	.half	0                               # 0x0
	.half	0                               # 0x0
	.half	0                               # 0x0
	.half	0                               # 0x0
	.half	0                               # 0x0
	.half	0                               # 0x0
	.half	0                               # 0x0
	.half	0                               # 0x0
	.half	0                               # 0x0
	.half	0                               # 0x0
	.half	63489                           # 0xf801
	.half	63489                           # 0xf801
	.half	0                               # 0x0
	.half	0                               # 0x0
	.half	0                               # 0x0
	.half	0                               # 0x0
	.half	0                               # 0x0
	.half	0                               # 0x0
	.half	0                               # 0x0
	.half	0                               # 0x0
	.half	0                               # 0x0
	.half	0                               # 0x0
	.half	0                               # 0x0
	.half	0                               # 0x0
	.half	0                               # 0x0
	.half	0                               # 0x0
	.half	0                               # 0x0
	.half	0                               # 0x0
	.half	0                               # 0x0
	.half	0                               # 0x0
	.half	0                               # 0x0
	.half	0                               # 0x0
	.half	0                               # 0x0
	.half	0                               # 0x0
	.half	0                               # 0x0
	.half	0                               # 0x0
	.half	0                               # 0x0
	.half	0                               # 0x0
	.half	0                               # 0x0
	.half	0                               # 0x0
	.half	0                               # 0x0
	.half	0                               # 0x0
	.half	0                               # 0x0
	.half	0                               # 0x0
	.half	0                               # 0x0
	.half	0                               # 0x0
	.half	0                               # 0x0
	.half	0                               # 0x0
	.half	0                               # 0x0
	.half	0                               # 0x0
	.half	0                               # 0x0
	.half	0                               # 0x0
	.half	0                               # 0x0
	.half	0                               # 0x0
	.half	0                               # 0x0
	.half	0                               # 0x0
	.half	0                               # 0x0
	.half	0                               # 0x0
	.half	63489                           # 0xf801
	.half	63489                           # 0xf801
	.half	0                               # 0x0
	.half	0                               # 0x0
	.half	0                               # 0x0
	.half	0                               # 0x0
	.half	0                               # 0x0
	.half	0                               # 0x0
	.half	0                               # 0x0
	.half	0                               # 0x0
	.half	0                               # 0x0
	.half	0                               # 0x0
	.half	0                               # 0x0
	.half	0                               # 0x0
	.half	0                               # 0x0
	.half	0                               # 0x0
	.half	0                               # 0x0
	.half	0                               # 0x0
	.half	0                               # 0x0
	.half	0                               # 0x0
	.half	0                               # 0x0
	.half	0                               # 0x0
	.half	0                               # 0x0
	.half	0                               # 0x0
	.half	0                               # 0x0
	.half	0                               # 0x0
	.half	0                               # 0x0
	.half	0                               # 0x0
	.half	0                               # 0x0
	.half	0                               # 0x0
	.half	0                               # 0x0
	.half	0                               # 0x0
	.half	0                               # 0x0
	.half	0                               # 0x0
	.half	0                               # 0x0
	.half	0                               # 0x0
	.half	0                               # 0x0
	.half	0                               # 0x0
	.half	0                               # 0x0
	.half	0                               # 0x0
	.half	0                               # 0x0
	.half	0                               # 0x0
	.half	0                               # 0x0
	.half	0                               # 0x0
	.half	0                               # 0x0
	.half	0                               # 0x0
	.half	0                               # 0x0
	.half	0                               # 0x0
	.half	63489                           # 0xf801
	.half	63489                           # 0xf801
	.half	0                               # 0x0
	.half	0                               # 0x0
	.half	0                               # 0x0
	.half	0                               # 0x0
	.half	0                               # 0x0
	.half	0                               # 0x0
	.half	0                               # 0x0
	.half	0                               # 0x0
	.half	0                               # 0x0
	.half	0                               # 0x0
	.half	0                               # 0x0
	.half	0                               # 0x0
	.half	0                               # 0x0
	.half	0                               # 0x0
	.half	0                               # 0x0
	.half	0                               # 0x0
	.half	0                               # 0x0
	.half	0                               # 0x0
	.half	0                               # 0x0
	.half	0                               # 0x0
	.half	0                               # 0x0
	.half	0                               # 0x0
	.half	0                               # 0x0
	.half	0                               # 0x0
	.half	0                               # 0x0
	.half	0                               # 0x0
	.half	0                               # 0x0
	.half	0                               # 0x0
	.half	0                               # 0x0
	.half	0                               # 0x0
	.half	0                               # 0x0
	.half	0                               # 0x0
	.half	0                               # 0x0
	.half	0                               # 0x0
	.half	0                               # 0x0
	.half	0                               # 0x0
	.half	0                               # 0x0
	.half	0                               # 0x0
	.half	0                               # 0x0
	.half	0                               # 0x0
	.half	0                               # 0x0
	.half	0                               # 0x0
	.half	0                               # 0x0
	.half	0                               # 0x0
	.half	0                               # 0x0
	.half	0                               # 0x0
	.half	63489                           # 0xf801
	.half	63489                           # 0xf801
	.half	0                               # 0x0
	.half	0                               # 0x0
	.half	0                               # 0x0
	.half	0                               # 0x0
	.half	0                               # 0x0
	.half	0                               # 0x0
	.half	0                               # 0x0
	.half	0                               # 0x0
	.half	0                               # 0x0
	.half	0                               # 0x0
	.half	0                               # 0x0
	.half	0                               # 0x0
	.half	0                               # 0x0
	.half	37655                           # 0x9317
	.half	37655                           # 0x9317
	.half	37655                           # 0x9317
	.half	37655                           # 0x9317
	.half	37655                           # 0x9317
	.half	37655                           # 0x9317
	.half	37655                           # 0x9317
	.half	37655                           # 0x9317
	.half	37655                           # 0x9317
	.half	37655                           # 0x9317
	.half	37655                           # 0x9317
	.half	37655                           # 0x9317
	.half	37655                           # 0x9317
	.half	37655                           # 0x9317
	.half	37655                           # 0x9317
	.half	37655                           # 0x9317
	.half	37655                           # 0x9317
	.half	37655                           # 0x9317
	.half	37655                           # 0x9317
	.half	37655                           # 0x9317
	.half	0                               # 0x0
	.half	0                               # 0x0
	.half	0                               # 0x0
	.half	0                               # 0x0
	.half	0                               # 0x0
	.half	0                               # 0x0
	.half	0                               # 0x0
	.half	0                               # 0x0
	.half	0                               # 0x0
	.half	0                               # 0x0
	.half	0                               # 0x0
	.half	0                               # 0x0
	.half	0                               # 0x0
	.half	63489                           # 0xf801
	.half	63489                           # 0xf801
	.half	0                               # 0x0
	.half	0                               # 0x0
	.half	0                               # 0x0
	.half	0                               # 0x0
	.half	0                               # 0x0
	.half	0                               # 0x0
	.half	0                               # 0x0
	.half	0                               # 0x0
	.half	0                               # 0x0
	.half	0                               # 0x0
	.half	37655                           # 0x9317
	.half	37655                           # 0x9317
	.half	37655                           # 0x9317
	.half	56803                           # 0xdde3
	.half	56803                           # 0xdde3
	.half	56803                           # 0xdde3
	.half	56803                           # 0xdde3
	.half	56803                           # 0xdde3
	.half	56803                           # 0xdde3
	.half	56803                           # 0xdde3
	.half	56803                           # 0xdde3
	.half	56803                           # 0xdde3
	.half	56803                           # 0xdde3
	.half	56803                           # 0xdde3
	.half	56803                           # 0xdde3
	.half	56803                           # 0xdde3
	.half	56803                           # 0xdde3
	.half	56803                           # 0xdde3
	.half	56803                           # 0xdde3
	.half	56803                           # 0xdde3
	.half	56803                           # 0xdde3
	.half	56803                           # 0xdde3
	.half	56803                           # 0xdde3
	.half	37655                           # 0x9317
	.half	37655                           # 0x9317
	.half	0                               # 0x0
	.half	0                               # 0x0
	.half	0                               # 0x0
	.half	0                               # 0x0
	.half	0                               # 0x0
	.half	0                               # 0x0
	.half	0                               # 0x0
	.half	0                               # 0x0
	.half	0                               # 0x0
	.half	0                               # 0x0
	.half	0                               # 0x0
	.half	63489                           # 0xf801
	.half	63489                           # 0xf801
	.half	0                               # 0x0
	.half	0                               # 0x0
	.half	0                               # 0x0
	.half	0                               # 0x0
	.half	0                               # 0x0
	.half	0                               # 0x0
	.half	0                               # 0x0
	.half	0                               # 0x0
	.half	37655                           # 0x9317
	.half	37655                           # 0x9317
	.half	56803                           # 0xdde3
	.half	56803                           # 0xdde3
	.half	56803                           # 0xdde3
	.half	46169                           # 0xb459
	.half	46169                           # 0xb459
	.half	46169                           # 0xb459
	.half	46169                           # 0xb459
	.half	46169                           # 0xb459
	.half	46169                           # 0xb459
	.half	46169                           # 0xb459
	.half	46169                           # 0xb459
	.half	46169                           # 0xb459
	.half	46169                           # 0xb459
	.half	46169                           # 0xb459
	.half	46169                           # 0xb459
	.half	46169                           # 0xb459
	.half	46169                           # 0xb459
	.half	46169                           # 0xb459
	.half	46169                           # 0xb459
	.half	46169                           # 0xb459
	.half	46169                           # 0xb459
	.half	46169                           # 0xb459
	.half	46169                           # 0xb459
	.half	56803                           # 0xdde3
	.half	56803                           # 0xdde3
	.half	37655                           # 0x9317
	.half	0                               # 0x0
	.half	0                               # 0x0
	.half	0                               # 0x0
	.half	0                               # 0x0
	.half	0                               # 0x0
	.half	0                               # 0x0
	.half	0                               # 0x0
	.half	0                               # 0x0
	.half	0                               # 0x0
	.half	0                               # 0x0
	.half	63489                           # 0xf801
	.half	63489                           # 0xf801
	.half	0                               # 0x0
	.half	0                               # 0x0
	.half	0                               # 0x0
	.half	0                               # 0x0
	.half	0                               # 0x0
	.half	0                               # 0x0
	.half	0                               # 0x0
	.half	37655                           # 0x9317
	.half	56803                           # 0xdde3
	.half	56803                           # 0xdde3
	.half	46169                           # 0xb459
	.half	46169                           # 0xb459
	.half	46169                           # 0xb459
	.half	46169                           # 0xb459
	.half	46169                           # 0xb459
	.half	50395                           # 0xc4db
	.half	50395                           # 0xc4db
	.half	46169                           # 0xb459
	.half	46169                           # 0xb459
	.half	46169                           # 0xb459
	.half	46169                           # 0xb459
	.half	46169                           # 0xb459
	.half	46169                           # 0xb459
	.half	46169                           # 0xb459
	.half	46169                           # 0xb459
	.half	46169                           # 0xb459
	.half	46169                           # 0xb459
	.half	50395                           # 0xc4db
	.half	50395                           # 0xc4db
	.half	46169                           # 0xb459
	.half	46169                           # 0xb459
	.half	46169                           # 0xb459
	.half	46169                           # 0xb459
	.half	46169                           # 0xb459
	.half	56803                           # 0xdde3
	.half	37655                           # 0x9317
	.half	0                               # 0x0
	.half	0                               # 0x0
	.half	0                               # 0x0
	.half	0                               # 0x0
	.half	0                               # 0x0
	.half	0                               # 0x0
	.half	0                               # 0x0
	.half	0                               # 0x0
	.half	0                               # 0x0
	.half	0                               # 0x0
	.half	63489                           # 0xf801
	.half	63489                           # 0xf801
	.half	0                               # 0x0
	.half	0                               # 0x0
	.half	0                               # 0x0
	.half	0                               # 0x0
	.half	0                               # 0x0
	.half	0                               # 0x0
	.half	37655                           # 0x9317
	.half	56803                           # 0xdde3
	.half	46169                           # 0xb459
	.half	46169                           # 0xb459
	.half	46169                           # 0xb459
	.half	46169                           # 0xb459
	.half	46169                           # 0xb459
	.half	43991                           # 0xabd7
	.half	43991                           # 0xabd7
	.half	50395                           # 0xc4db
	.half	50395                           # 0xc4db
	.half	43991                           # 0xabd7
	.half	43991                           # 0xabd7
	.half	43991                           # 0xabd7
	.half	43991                           # 0xabd7
	.half	43991                           # 0xabd7
	.half	43991                           # 0xabd7
	.half	43991                           # 0xabd7
	.half	43991                           # 0xabd7
	.half	43991                           # 0xabd7
	.half	43991                           # 0xabd7
	.half	50395                           # 0xc4db
	.half	50395                           # 0xc4db
	.half	43991                           # 0xabd7
	.half	43991                           # 0xabd7
	.half	43991                           # 0xabd7
	.half	43991                           # 0xabd7
	.half	46169                           # 0xb459
	.half	56803                           # 0xdde3
	.half	37655                           # 0x9317
	.half	0                               # 0x0
	.half	0                               # 0x0
	.half	0                               # 0x0
	.half	0                               # 0x0
	.half	0                               # 0x0
	.half	0                               # 0x0
	.half	0                               # 0x0
	.half	0                               # 0x0
	.half	0                               # 0x0
	.half	0                               # 0x0
	.half	63489                           # 0xf801
	.half	63489                           # 0xf801
	.half	0                               # 0x0
	.half	0                               # 0x0
	.half	0                               # 0x0
	.half	0                               # 0x0
	.half	0                               # 0x0
	.half	0                               # 0x0
	.half	37655                           # 0x9317
	.half	56803                           # 0xdde3
	.half	46169                           # 0xb459
	.half	46169                           # 0xb459
	.half	43991                           # 0xabd7
	.half	43991                           # 0xabd7
	.half	43991                           # 0xabd7
	.half	43991                           # 0xabd7
	.half	43991                           # 0xabd7
	.half	50395                           # 0xc4db
	.half	50395                           # 0xc4db
	.half	43991                           # 0xabd7
	.half	43991                           # 0xabd7
	.half	43991                           # 0xabd7
	.half	43991                           # 0xabd7
	.half	43991                           # 0xabd7
	.half	43991                           # 0xabd7
	.half	43991                           # 0xabd7
	.half	43991                           # 0xabd7
	.half	43991                           # 0xabd7
	.half	43991                           # 0xabd7
	.half	50395                           # 0xc4db
	.half	50395                           # 0xc4db
	.half	43991                           # 0xabd7
	.half	43991                           # 0xabd7
	.half	43991                           # 0xabd7
	.half	43991                           # 0xabd7
	.half	43991                           # 0xabd7
	.half	56803                           # 0xdde3
	.half	37655                           # 0x9317
	.half	0                               # 0x0
	.half	0                               # 0x0
	.half	0                               # 0x0
	.half	0                               # 0x0
	.half	0                               # 0x0
	.half	0                               # 0x0
	.half	0                               # 0x0
	.half	0                               # 0x0
	.half	0                               # 0x0
	.half	0                               # 0x0
	.half	63489                           # 0xf801
	.half	63489                           # 0xf801
	.half	0                               # 0x0
	.half	0                               # 0x0
	.half	0                               # 0x0
	.half	0                               # 0x0
	.half	0                               # 0x0
	.half	0                               # 0x0
	.half	37655                           # 0x9317
	.half	56803                           # 0xdde3
	.half	43991                           # 0xabd7
	.half	43991                           # 0xabd7
	.half	43991                           # 0xabd7
	.half	43991                           # 0xabd7
	.half	43991                           # 0xabd7
	.half	43991                           # 0xabd7
	.half	43991                           # 0xabd7
	.half	50395                           # 0xc4db
	.half	50395                           # 0xc4db
	.half	43991                           # 0xabd7
	.half	43991                           # 0xabd7
	.half	43991                           # 0xabd7
	.half	43991                           # 0xabd7
	.half	43991                           # 0xabd7
	.half	43991                           # 0xabd7
	.half	43991                           # 0xabd7
	.half	43991                           # 0xabd7
	.half	43991                           # 0xabd7
	.half	43991                           # 0xabd7
	.half	50395                           # 0xc4db
	.half	50395                           # 0xc4db
	.half	43991                           # 0xabd7
	.half	43991                           # 0xabd7
	.half	43991                           # 0xabd7
	.half	43991                           # 0xabd7
	.half	43991                           # 0xabd7
	.half	56803                           # 0xdde3
	.half	37655                           # 0x9317
	.half	0                               # 0x0
	.half	0                               # 0x0
	.half	63417                           # 0xf7b9
	.half	63417                           # 0xf7b9
	.half	63417                           # 0xf7b9
	.half	0                               # 0x0
	.half	0                               # 0x0
	.half	0                               # 0x0
	.half	0                               # 0x0
	.half	0                               # 0x0
	.half	63489                           # 0xf801
	.half	63489                           # 0xf801
	.half	0                               # 0x0
	.half	0                               # 0x0
	.half	0                               # 0x0
	.half	0                               # 0x0
	.half	0                               # 0x0
	.half	0                               # 0x0
	.half	37655                           # 0x9317
	.half	56803                           # 0xdde3
	.half	43991                           # 0xabd7
	.half	43991                           # 0xabd7
	.half	43991                           # 0xabd7
	.half	43991                           # 0xabd7
	.half	43991                           # 0xabd7
	.half	43991                           # 0xabd7
	.half	43991                           # 0xabd7
	.half	50395                           # 0xc4db
	.half	50395                           # 0xc4db
	.half	43991                           # 0xabd7
	.half	43991                           # 0xabd7
	.half	43991                           # 0xabd7
	.half	43991                           # 0xabd7
	.half	43991                           # 0xabd7
	.half	43991                           # 0xabd7
	.half	43991                           # 0xabd7
	.half	43991                           # 0xabd7
	.half	43991                           # 0xabd7
	.half	43991                           # 0xabd7
	.half	50395                           # 0xc4db
	.half	50395                           # 0xc4db
	.half	43991                           # 0xabd7
	.half	43991                           # 0xabd7
	.half	43991                           # 0xabd7
	.half	43991                           # 0xabd7
	.half	43991                           # 0xabd7
	.half	56803                           # 0xdde3
	.half	37655                           # 0x9317
	.half	63417                           # 0xf7b9
	.half	0                               # 0x0
	.half	0                               # 0x0
	.half	0                               # 0x0
	.half	0                               # 0x0
	.half	0                               # 0x0
	.half	0                               # 0x0
	.half	0                               # 0x0
	.half	0                               # 0x0
	.half	0                               # 0x0
	.half	63489                           # 0xf801
	.half	63489                           # 0xf801
	.half	0                               # 0x0
	.half	0                               # 0x0
	.half	0                               # 0x0
	.half	0                               # 0x0
	.half	0                               # 0x0
	.half	0                               # 0x0
	.half	63417                           # 0xf7b9
	.half	37655                           # 0x9317
	.half	56803                           # 0xdde3
	.half	56803                           # 0xdde3
	.half	43991                           # 0xabd7
	.half	43991                           # 0xabd7
	.half	43991                           # 0xabd7
	.half	43991                           # 0xabd7
	.half	43991                           # 0xabd7
	.half	50395                           # 0xc4db
	.half	50395                           # 0xc4db
	.half	43991                           # 0xabd7
	.half	43991                           # 0xabd7
	.half	43991                           # 0xabd7
	.half	43991                           # 0xabd7
	.half	43991                           # 0xabd7
	.half	43991                           # 0xabd7
	.half	43991                           # 0xabd7
	.half	43991                           # 0xabd7
	.half	43991                           # 0xabd7
	.half	43991                           # 0xabd7
	.half	50395                           # 0xc4db
	.half	50395                           # 0xc4db
	.half	43991                           # 0xabd7
	.half	43991                           # 0xabd7
	.half	43991                           # 0xabd7
	.half	43991                           # 0xabd7
	.half	43991                           # 0xabd7
	.half	56803                           # 0xdde3
	.half	37655                           # 0x9317
	.half	63417                           # 0xf7b9
	.half	63417                           # 0xf7b9
	.half	0                               # 0x0
	.half	0                               # 0x0
	.half	0                               # 0x0
	.half	63417                           # 0xf7b9
	.half	63417                           # 0xf7b9
	.half	0                               # 0x0
	.half	0                               # 0x0
	.half	0                               # 0x0
	.half	63489                           # 0xf801
	.half	63489                           # 0xf801
	.half	0                               # 0x0
	.half	0                               # 0x0
	.half	0                               # 0x0
	.half	0                               # 0x0
	.half	0                               # 0x0
	.half	0                               # 0x0
	.half	63417                           # 0xf7b9
	.half	37655                           # 0x9317
	.half	50395                           # 0xc4db
	.half	50395                           # 0xc4db
	.half	56803                           # 0xdde3
	.half	56803                           # 0xdde3
	.half	56803                           # 0xdde3
	.half	43991                           # 0xabd7
	.half	43991                           # 0xabd7
	.half	50395                           # 0xc4db
	.half	50395                           # 0xc4db
	.half	43991                           # 0xabd7
	.half	43991                           # 0xabd7
	.half	43991                           # 0xabd7
	.half	43991                           # 0xabd7
	.half	43991                           # 0xabd7
	.half	43991                           # 0xabd7
	.half	43991                           # 0xabd7
	.half	43991                           # 0xabd7
	.half	43991                           # 0xabd7
	.half	43991                           # 0xabd7
	.half	50395                           # 0xc4db
	.half	50395                           # 0xc4db
	.half	43991                           # 0xabd7
	.half	43991                           # 0xabd7
	.half	43991                           # 0xabd7
	.half	43991                           # 0xabd7
	.half	56803                           # 0xdde3
	.half	56803                           # 0xdde3
	.half	37655                           # 0x9317
	.half	63417                           # 0xf7b9
	.half	0                               # 0x0
	.half	0                               # 0x0
	.half	0                               # 0x0
	.half	0                               # 0x0
	.half	0                               # 0x0
	.half	0                               # 0x0
	.half	0                               # 0x0
	.half	0                               # 0x0
	.half	0                               # 0x0
	.half	63489                           # 0xf801
	.half	63489                           # 0xf801
	.half	0                               # 0x0
	.half	0                               # 0x0
	.half	0                               # 0x0
	.half	0                               # 0x0
	.half	0                               # 0x0
	.half	0                               # 0x0
	.half	0                               # 0x0
	.half	63417                           # 0xf7b9
	.half	37655                           # 0x9317
	.half	50395                           # 0xc4db
	.half	50395                           # 0xc4db
	.half	50395                           # 0xc4db
	.half	50395                           # 0xc4db
	.half	56803                           # 0xdde3
	.half	56803                           # 0xdde3
	.half	56803                           # 0xdde3
	.half	56803                           # 0xdde3
	.half	56803                           # 0xdde3
	.half	56803                           # 0xdde3
	.half	56803                           # 0xdde3
	.half	56803                           # 0xdde3
	.half	56803                           # 0xdde3
	.half	56803                           # 0xdde3
	.half	56803                           # 0xdde3
	.half	56803                           # 0xdde3
	.half	56803                           # 0xdde3
	.half	56803                           # 0xdde3
	.half	56803                           # 0xdde3
	.half	56803                           # 0xdde3
	.half	56803                           # 0xdde3
	.half	56803                           # 0xdde3
	.half	56803                           # 0xdde3
	.half	56803                           # 0xdde3
	.half	50395                           # 0xc4db
	.half	37655                           # 0x9317
	.half	63417                           # 0xf7b9
	.half	0                               # 0x0
	.half	0                               # 0x0
	.half	0                               # 0x0
	.half	63417                           # 0xf7b9
	.half	63417                           # 0xf7b9
	.half	63417                           # 0xf7b9
	.half	0                               # 0x0
	.half	0                               # 0x0
	.half	0                               # 0x0
	.half	0                               # 0x0
	.half	63489                           # 0xf801
	.half	63489                           # 0xf801
	.half	0                               # 0x0
	.half	0                               # 0x0
	.half	0                               # 0x0
	.half	0                               # 0x0
	.half	0                               # 0x0
	.half	0                               # 0x0
	.half	0                               # 0x0
	.half	0                               # 0x0
	.half	63417                           # 0xf7b9
	.half	63417                           # 0xf7b9
	.half	50395                           # 0xc4db
	.half	50395                           # 0xc4db
	.half	50395                           # 0xc4db
	.half	50395                           # 0xc4db
	.half	50395                           # 0xc4db
	.half	50395                           # 0xc4db
	.half	50395                           # 0xc4db
	.half	50395                           # 0xc4db
	.half	50395                           # 0xc4db
	.half	50395                           # 0xc4db
	.half	50395                           # 0xc4db
	.half	50395                           # 0xc4db
	.half	50395                           # 0xc4db
	.half	50395                           # 0xc4db
	.half	50395                           # 0xc4db
	.half	50395                           # 0xc4db
	.half	50395                           # 0xc4db
	.half	50395                           # 0xc4db
	.half	50395                           # 0xc4db
	.half	50395                           # 0xc4db
	.half	50395                           # 0xc4db
	.half	50395                           # 0xc4db
	.half	50395                           # 0xc4db
	.half	50395                           # 0xc4db
	.half	37655                           # 0x9317
	.half	63417                           # 0xf7b9
	.half	0                               # 0x0
	.half	0                               # 0x0
	.half	0                               # 0x0
	.half	0                               # 0x0
	.half	0                               # 0x0
	.half	0                               # 0x0
	.half	0                               # 0x0
	.half	0                               # 0x0
	.half	0                               # 0x0
	.half	0                               # 0x0
	.half	63489                           # 0xf801
	.half	63489                           # 0xf801
	.half	0                               # 0x0
	.half	0                               # 0x0
	.half	0                               # 0x0
	.half	0                               # 0x0
	.half	0                               # 0x0
	.half	0                               # 0x0
	.half	0                               # 0x0
	.half	0                               # 0x0
	.half	0                               # 0x0
	.half	0                               # 0x0
	.half	63417                           # 0xf7b9
	.half	50395                           # 0xc4db
	.half	50395                           # 0xc4db
	.half	50395                           # 0xc4db
	.half	50395                           # 0xc4db
	.half	50395                           # 0xc4db
	.half	50395                           # 0xc4db
	.half	50395                           # 0xc4db
	.half	50395                           # 0xc4db
	.half	50395                           # 0xc4db
	.half	50395                           # 0xc4db
	.half	50395                           # 0xc4db
	.half	50395                           # 0xc4db
	.half	50395                           # 0xc4db
	.half	50395                           # 0xc4db
	.half	50395                           # 0xc4db
	.half	50395                           # 0xc4db
	.half	50395                           # 0xc4db
	.half	50395                           # 0xc4db
	.half	50395                           # 0xc4db
	.half	50395                           # 0xc4db
	.half	50395                           # 0xc4db
	.half	50395                           # 0xc4db
	.half	37655                           # 0x9317
	.half	63417                           # 0xf7b9
	.half	63417                           # 0xf7b9
	.half	63417                           # 0xf7b9
	.half	63417                           # 0xf7b9
	.half	63417                           # 0xf7b9
	.half	0                               # 0x0
	.half	0                               # 0x0
	.half	0                               # 0x0
	.half	0                               # 0x0
	.half	0                               # 0x0
	.half	0                               # 0x0
	.half	0                               # 0x0
	.half	63489                           # 0xf801
	.half	63489                           # 0xf801
	.half	0                               # 0x0
	.half	0                               # 0x0
	.half	0                               # 0x0
	.half	0                               # 0x0
	.half	0                               # 0x0
	.half	0                               # 0x0
	.half	0                               # 0x0
	.half	0                               # 0x0
	.half	0                               # 0x0
	.half	0                               # 0x0
	.half	0                               # 0x0
	.half	63417                           # 0xf7b9
	.half	63417                           # 0xf7b9
	.half	50395                           # 0xc4db
	.half	50395                           # 0xc4db
	.half	50395                           # 0xc4db
	.half	50395                           # 0xc4db
	.half	50395                           # 0xc4db
	.half	50395                           # 0xc4db
	.half	50395                           # 0xc4db
	.half	50395                           # 0xc4db
	.half	50395                           # 0xc4db
	.half	50395                           # 0xc4db
	.half	50395                           # 0xc4db
	.half	50395                           # 0xc4db
	.half	50395                           # 0xc4db
	.half	50395                           # 0xc4db
	.half	50395                           # 0xc4db
	.half	50395                           # 0xc4db
	.half	50395                           # 0xc4db
	.half	50395                           # 0xc4db
	.half	50395                           # 0xc4db
	.half	63417                           # 0xf7b9
	.half	63417                           # 0xf7b9
	.half	0                               # 0x0
	.half	0                               # 0x0
	.half	0                               # 0x0
	.half	0                               # 0x0
	.half	0                               # 0x0
	.half	0                               # 0x0
	.half	0                               # 0x0
	.half	0                               # 0x0
	.half	0                               # 0x0
	.half	0                               # 0x0
	.half	0                               # 0x0
	.half	0                               # 0x0
	.half	63489                           # 0xf801
	.half	63489                           # 0xf801
	.half	0                               # 0x0
	.half	0                               # 0x0
	.half	0                               # 0x0
	.half	0                               # 0x0
	.half	0                               # 0x0
	.half	0                               # 0x0
	.half	0                               # 0x0
	.half	0                               # 0x0
	.half	0                               # 0x0
	.half	0                               # 0x0
	.half	0                               # 0x0
	.half	0                               # 0x0
	.half	0                               # 0x0
	.half	63417                           # 0xf7b9
	.half	63417                           # 0xf7b9
	.half	63417                           # 0xf7b9
	.half	63417                           # 0xf7b9
	.half	63417                           # 0xf7b9
	.half	63417                           # 0xf7b9
	.half	63417                           # 0xf7b9
	.half	63417                           # 0xf7b9
	.half	63417                           # 0xf7b9
	.half	63417                           # 0xf7b9
	.half	63417                           # 0xf7b9
	.half	63417                           # 0xf7b9
	.half	63417                           # 0xf7b9
	.half	63417                           # 0xf7b9
	.half	63417                           # 0xf7b9
	.half	63417                           # 0xf7b9
	.half	63417                           # 0xf7b9
	.half	63417                           # 0xf7b9
	.half	63417                           # 0xf7b9
	.half	0                               # 0x0
	.half	0                               # 0x0
	.half	0                               # 0x0
	.half	0                               # 0x0
	.half	0                               # 0x0
	.half	0                               # 0x0
	.half	0                               # 0x0
	.half	0                               # 0x0
	.half	0                               # 0x0
	.half	0                               # 0x0
	.half	0                               # 0x0
	.half	0                               # 0x0
	.half	0                               # 0x0
	.half	0                               # 0x0
	.half	63489                           # 0xf801
	.half	63489                           # 0xf801
	.half	0                               # 0x0
	.half	0                               # 0x0
	.half	0                               # 0x0
	.half	0                               # 0x0
	.half	0                               # 0x0
	.half	0                               # 0x0
	.half	0                               # 0x0
	.half	0                               # 0x0
	.half	0                               # 0x0
	.half	0                               # 0x0
	.half	0                               # 0x0
	.half	0                               # 0x0
	.half	0                               # 0x0
	.half	0                               # 0x0
	.half	0                               # 0x0
	.half	0                               # 0x0
	.half	0                               # 0x0
	.half	0                               # 0x0
	.half	0                               # 0x0
	.half	0                               # 0x0
	.half	0                               # 0x0
	.half	0                               # 0x0
	.half	0                               # 0x0
	.half	0                               # 0x0
	.half	0                               # 0x0
	.half	0                               # 0x0
	.half	0                               # 0x0
	.half	0                               # 0x0
	.half	0                               # 0x0
	.half	0                               # 0x0
	.half	0                               # 0x0
	.half	0                               # 0x0
	.half	0                               # 0x0
	.half	0                               # 0x0
	.half	0                               # 0x0
	.half	0                               # 0x0
	.half	0                               # 0x0
	.half	0                               # 0x0
	.half	0                               # 0x0
	.half	0                               # 0x0
	.half	0                               # 0x0
	.half	0                               # 0x0
	.half	0                               # 0x0
	.half	0                               # 0x0
	.half	0                               # 0x0
	.half	0                               # 0x0
	.half	63489                           # 0xf801
	.half	63489                           # 0xf801
	.half	0                               # 0x0
	.half	0                               # 0x0
	.half	0                               # 0x0
	.half	0                               # 0x0
	.half	0                               # 0x0
	.half	0                               # 0x0
	.half	0                               # 0x0
	.half	0                               # 0x0
	.half	0                               # 0x0
	.half	0                               # 0x0
	.half	0                               # 0x0
	.half	0                               # 0x0
	.half	0                               # 0x0
	.half	0                               # 0x0
	.half	0                               # 0x0
	.half	0                               # 0x0
	.half	0                               # 0x0
	.half	0                               # 0x0
	.half	0                               # 0x0
	.half	0                               # 0x0
	.half	0                               # 0x0
	.half	0                               # 0x0
	.half	0                               # 0x0
	.half	0                               # 0x0
	.half	0                               # 0x0
	.half	0                               # 0x0
	.half	0                               # 0x0
	.half	0                               # 0x0
	.half	0                               # 0x0
	.half	0                               # 0x0
	.half	0                               # 0x0
	.half	0                               # 0x0
	.half	0                               # 0x0
	.half	0                               # 0x0
	.half	0                               # 0x0
	.half	0                               # 0x0
	.half	0                               # 0x0
	.half	0                               # 0x0
	.half	0                               # 0x0
	.half	0                               # 0x0
	.half	0                               # 0x0
	.half	0                               # 0x0
	.half	0                               # 0x0
	.half	0                               # 0x0
	.half	0                               # 0x0
	.half	0                               # 0x0
	.half	63489                           # 0xf801
	.half	63489                           # 0xf801
	.half	0                               # 0x0
	.half	0                               # 0x0
	.half	0                               # 0x0
	.half	0                               # 0x0
	.half	0                               # 0x0
	.half	0                               # 0x0
	.half	0                               # 0x0
	.half	0                               # 0x0
	.half	0                               # 0x0
	.half	0                               # 0x0
	.half	0                               # 0x0
	.half	0                               # 0x0
	.half	0                               # 0x0
	.half	0                               # 0x0
	.half	0                               # 0x0
	.half	0                               # 0x0
	.half	0                               # 0x0
	.half	0                               # 0x0
	.half	0                               # 0x0
	.half	0                               # 0x0
	.half	0                               # 0x0
	.half	0                               # 0x0
	.half	0                               # 0x0
	.half	0                               # 0x0
	.half	0                               # 0x0
	.half	0                               # 0x0
	.half	0                               # 0x0
	.half	0                               # 0x0
	.half	0                               # 0x0
	.half	0                               # 0x0
	.half	0                               # 0x0
	.half	0                               # 0x0
	.half	0                               # 0x0
	.half	0                               # 0x0
	.half	0                               # 0x0
	.half	0                               # 0x0
	.half	0                               # 0x0
	.half	0                               # 0x0
	.half	0                               # 0x0
	.half	0                               # 0x0
	.half	0                               # 0x0
	.half	0                               # 0x0
	.half	0                               # 0x0
	.half	0                               # 0x0
	.half	0                               # 0x0
	.half	0                               # 0x0
	.half	63489                           # 0xf801
	.half	63489                           # 0xf801
	.half	10177                           # 0x27c1
	.half	0                               # 0x0
	.half	0                               # 0x0
	.half	0                               # 0x0
	.half	0                               # 0x0
	.half	0                               # 0x0
	.half	0                               # 0x0
	.half	0                               # 0x0
	.half	0                               # 0x0
	.half	0                               # 0x0
	.half	0                               # 0x0
	.half	0                               # 0x0
	.half	0                               # 0x0
	.half	0                               # 0x0
	.half	0                               # 0x0
	.half	0                               # 0x0
	.half	0                               # 0x0
	.half	0                               # 0x0
	.half	0                               # 0x0
	.half	0                               # 0x0
	.half	0                               # 0x0
	.half	0                               # 0x0
	.half	0                               # 0x0
	.half	0                               # 0x0
	.half	0                               # 0x0
	.half	0                               # 0x0
	.half	0                               # 0x0
	.half	0                               # 0x0
	.half	0                               # 0x0
	.half	0                               # 0x0
	.half	0                               # 0x0
	.half	0                               # 0x0
	.half	0                               # 0x0
	.half	0                               # 0x0
	.half	0                               # 0x0
	.half	0                               # 0x0
	.half	0                               # 0x0
	.half	0                               # 0x0
	.half	0                               # 0x0
	.half	0                               # 0x0
	.half	0                               # 0x0
	.half	0                               # 0x0
	.half	0                               # 0x0
	.half	0                               # 0x0
	.half	0                               # 0x0
	.half	10177                           # 0x27c1
	.half	63489                           # 0xf801
	.half	1                               # 0x1
	.half	1                               # 0x1
	.half	1                               # 0x1
	.half	1                               # 0x1
	.half	1                               # 0x1
	.half	1                               # 0x1
	.half	1                               # 0x1
	.half	1                               # 0x1
	.half	1                               # 0x1
	.half	1                               # 0x1
	.half	1                               # 0x1
	.half	1                               # 0x1
	.half	1                               # 0x1
	.half	1                               # 0x1
	.half	1                               # 0x1
	.half	1                               # 0x1
	.half	1                               # 0x1
	.half	1                               # 0x1
	.half	1                               # 0x1
	.half	1                               # 0x1
	.half	1                               # 0x1
	.half	1                               # 0x1
	.half	1                               # 0x1
	.half	1                               # 0x1
	.half	1                               # 0x1
	.half	1                               # 0x1
	.half	1                               # 0x1
	.half	1                               # 0x1
	.half	1                               # 0x1
	.half	1                               # 0x1
	.half	1                               # 0x1
	.half	1                               # 0x1
	.half	1                               # 0x1
	.half	1                               # 0x1
	.half	1                               # 0x1
	.half	1                               # 0x1
	.half	1                               # 0x1
	.half	1                               # 0x1
	.half	1                               # 0x1
	.half	1                               # 0x1
	.half	1                               # 0x1
	.half	1                               # 0x1
	.half	1                               # 0x1
	.half	1                               # 0x1
	.half	1                               # 0x1
	.half	1                               # 0x1
	.half	1                               # 0x1
	.half	1                               # 0x1
	.size	_ZN11SproutLandsL5BoatsE, 3072

	.type	.L.str,@object                  # @.str
	.section	.rodata.str1.1,"aMS",@progbits,1
.L.str:
	.asciz	"Boat x pos: %i"
	.size	.L.str, 15

	.ident	"clang version 21.0.0git"
	.section	".note.GNU-stack","",@progbits
	.addrsig
	.addrsig_sym _ZN11SproutLandsL5WaterE
	.addrsig_sym _ZN11SproutLandsL5BoatsE
